target datalayout = "e-m:e-p270:32:32-p271:32:32-p272:64:64-i64:64-i128:128-f80:128-n8:16:32:64-S128"
target triple = "x86_64-pc-linux-gnu"

%struct.jit_State = type { %struct.GCtrace, ptr, ptr, ptr, ptr, ptr, ptr, i32, i32, i32, i8, i8, %struct.IRType1, i8, %struct.FoldState, ptr, i32, i32, i32, i32, i32, i32, i32, [1 x i32], [5 x %union.TValue], [3 x %union.TValue], ptr, i32, i32, i32, i32, ptr, ptr, i32, i32, i8, ptr, i32, i32, i16, [101 x i16], [258 x i32], [15 x i32], [16 x ptr], [64 x %struct.HotPenalty], i32, [16 x %struct.BPropEntry], i32, %struct.ScEvEntry, ptr, i32, i32, i32, ptr, i32, i32, ptr, ptr, ptr, i64, i64, %union.TValue, ptr, i32, i32 }
%struct.GCtrace = type { %struct.GCRef, i8, i8, i16, i32, i32, %struct.GCRef, ptr, i32, i32, ptr, ptr, %struct.GCRef, %struct.MRef, i32, i32, ptr, i32, i16, i16, i16, i16, i16, i16, i16, i8, i8, i8, i8 }
%struct.GCRef = type { i64 }
%struct.MRef = type { i64 }
%struct.IRType1 = type { i8 }
%struct.FoldState = type { %union.IRIns, [2 x %union.IRIns], [2 x %union.IRIns] }
%union.IRIns = type { %struct.GCRef }
%struct.HotPenalty = type { %struct.MRef, i16, i16 }
%struct.BPropEntry = type { i16, i16, i32 }
%struct.ScEvEntry = type { %struct.MRef, i16, i16, i16, i16, %struct.IRType1, i8 }
%union.TValue = type { i64 }
%struct.anon.0 = type { i32, %struct.IRType1, i8, i8, i8 }
%struct.anon = type { i16, i16, i16, i16 }

; Function Attrs: nounwind uwtable
define internal i32 @fold_simplify_band_k(ptr noundef %0) #0 {
  %2 = alloca i32, align 4
  %3 = alloca ptr, align 8
  %4 = alloca i64, align 8
  %5 = alloca i32, align 4
  store ptr %0, ptr %3, align 8, !tbaa !4
  call void @llvm.lifetime.start.p0(i64 8, ptr %4) #8
  %6 = load ptr, ptr %3, align 8, !tbaa !4
  %7 = getelementptr inbounds nuw %struct.jit_State, ptr %6, i32 0, i32 14
  %8 = getelementptr inbounds nuw %struct.FoldState, ptr %7, i32 0, i32 2
  %9 = getelementptr inbounds [2 x %union.IRIns], ptr %8, i64 0, i64 0
  %10 = getelementptr inbounds nuw %struct.anon.0, ptr %9, i32 0, i32 2
  %11 = load i8, ptr %10, align 1, !tbaa !29
  %12 = zext i8 %11 to i32
  %13 = icmp eq i32 %12, 23
  br i1 %13, label %14, label %21

14:                                               ; preds = %1
  %15 = load ptr, ptr %3, align 8, !tbaa !4
  %16 = getelementptr inbounds nuw %struct.jit_State, ptr %15, i32 0, i32 14
  %17 = getelementptr inbounds nuw %struct.FoldState, ptr %16, i32 0, i32 2
  %18 = getelementptr inbounds [2 x %union.IRIns], ptr %17, i64 0, i64 0
  %19 = load i32, ptr %18, align 8, !tbaa !29
  %20 = sext i32 %19 to i64
  br label %27

21:                                               ; preds = %1
  %22 = load ptr, ptr %3, align 8, !tbaa !4
  %23 = getelementptr inbounds nuw %struct.jit_State, ptr %22, i32 0, i32 14
  %24 = getelementptr inbounds nuw %struct.FoldState, ptr %23, i32 0, i32 2
  %25 = getelementptr inbounds [2 x %union.IRIns], ptr %24, i64 0, i64 1
  %26 = load i64, ptr %25, align 8, !tbaa !29
  br label %27

27:                                               ; preds = %21, %14
  %28 = phi i64 [ %20, %14 ], [ %26, %21 ]
  store i64 %28, ptr %4, align 8, !tbaa !52
  %29 = load i64, ptr %4, align 8, !tbaa !52
  %30 = icmp eq i64 %29, 0
  br i1 %30, label %31, label %38

31:                                               ; preds = %27
  %32 = load ptr, ptr %3, align 8, !tbaa !4
  %33 = getelementptr inbounds nuw %struct.jit_State, ptr %32, i32 0, i32 14
  %34 = getelementptr inbounds nuw %struct.FoldState, ptr %33, i32 0, i32 0
  %35 = getelementptr inbounds nuw %struct.anon, ptr %34, i32 0, i32 1
  %36 = load i16, ptr %35, align 2, !tbaa !29
  %37 = zext i16 %36 to i32
  store i32 %37, ptr %2, align 4
  store i32 1, ptr %5, align 4
  br label %49

38:                                               ; preds = %27
  %39 = load i64, ptr %4, align 8, !tbaa !52
  %40 = icmp eq i64 %39, -1
  br i1 %40, label %41, label %48

41:                                               ; preds = %38
  %42 = load ptr, ptr %3, align 8, !tbaa !4
  %43 = getelementptr inbounds nuw %struct.jit_State, ptr %42, i32 0, i32 14
  %44 = getelementptr inbounds nuw %struct.FoldState, ptr %43, i32 0, i32 0
  %45 = getelementptr inbounds nuw %struct.anon, ptr %44, i32 0, i32 0
  %46 = load i16, ptr %45, align 8, !tbaa !29
  %47 = zext i16 %46 to i32
  store i32 %47, ptr %2, align 4
  store i32 1, ptr %5, align 4
  br label %49

48:                                               ; preds = %38
  store i32 0, ptr %2, align 4
  store i32 1, ptr %5, align 4
  br label %49

49:                                               ; preds = %48, %41, %31
  call void @llvm.lifetime.end.p0(i64 8, ptr %4) #8
  %50 = load i32, ptr %2, align 4
  ret i32 %50
}