; Function Attrs: mustprogress nofree norecurse nosync nounwind willreturn memory(argmem: read) uwtable
define internal range(i32 0, 65536) i32 @fold_simplify_band_k(ptr noundef readonly captures(none) %0) #6 {
  %2 = getelementptr inbounds nuw i8, ptr %0, i64 184
  %3 = getelementptr inbounds nuw i8, ptr %0, i64 213
  %4 = load i8, ptr %3, align 1, !tbaa !28
  %5 = icmp eq i8 %4, 23
  br i1 %5, label %6, label %10

6:                                                ; preds = %1
  %7 = getelementptr inbounds nuw i8, ptr %0, i64 208
  %8 = load i32, ptr %7, align 8, !tbaa !28
  %9 = sext i32 %8 to i64
  br label %13

10:                                               ; preds = %1
  %11 = getelementptr inbounds nuw i8, ptr %0, i64 216
  %12 = load i64, ptr %11, align 8, !tbaa !28
  br label %13

13:                                               ; preds = %10, %6
  %14 = phi i64 [ %9, %6 ], [ %12, %10 ]
  switch i64 %14, label %20 [
    i64 0, label %15
    i64 -1, label %18
  ]

15:                                               ; preds = %13
  %16 = getelementptr inbounds nuw i8, ptr %0, i64 186
  %17 = load i16, ptr %16, align 2, !tbaa !28
  br label %20

18:                                               ; preds = %13
  %19 = load i16, ptr %2, align 8, !tbaa !28
  br label %20

20:                                               ; preds = %13, %18, %15
  %.0.shrunk = phi i16 [ %17, %15 ], [ %19, %18 ], [ 0, %13 ]
  %.0 = zext i16 %.0.shrunk to i32
  ret i32 %.0
}